; Function Attrs: nounwind sspstrong uwtable
define internal i32 @virtio_pci_load_config(ptr noundef %0, ptr noundef %1) #0 {
  %3 = getelementptr i8, ptr %0, i64 34160
  %.val = load ptr, ptr %3, align 8
  %.not.i = icmp eq ptr %.val, null
  br i1 %.not.i, label %virtio_bus_get_device.exit, label %4

4:                                                ; preds = %2
  %5 = getelementptr inbounds nuw i8, ptr %.val, i64 16
  %6 = load ptr, ptr %5, align 8
  br label %virtio_bus_get_device.exit

virtio_bus_get_device.exit:                       ; preds = %2, %4
  %7 = phi ptr [ %6, %4 ], [ null, %2 ]
  %8 = tail call i32 @pci_device_load(ptr noundef nonnull %0, ptr noundef %1) #15
  %.not = icmp eq i32 %8, 0
  br i1 %.not, label %9, label %21

9:                                                ; preds = %virtio_bus_get_device.exit
  tail call void @msix_unuse_all_vectors(ptr noundef nonnull %0) #15
  tail call void @msix_load(ptr noundef nonnull %0, ptr noundef %1) #15
  %10 = tail call i32 @msix_present(ptr noundef nonnull %0) #15
  %.not17 = icmp eq i32 %10, 0
  br i1 %.not17, label %.thread, label %11

11:                                               ; preds = %9
  %12 = tail call i32 @qemu_get_be16(ptr noundef %1) #15
  %13 = trunc i32 %12 to i16
  %.not18 = icmp eq i16 %13, -1
  br i1 %.not18, label %.thread, label %14

14:                                               ; preds = %11
  %15 = and i32 %12, 65535
  %16 = getelementptr inbounds nuw i8, ptr %0, i64 5368
  %17 = load i32, ptr %16, align 8
  %.not19 = icmp ugt i32 %17, %15
  br i1 %.not19, label %19, label %21

.thread:                                          ; preds = %11, %9
  %18 = getelementptr inbounds nuw i8, ptr %7, i64 208
  store i16 -1, ptr %18, align 8
  br label %21

19:                                               ; preds = %14
  %20 = getelementptr inbounds nuw i8, ptr %7, i64 208
  store i16 %13, ptr %20, align 8
  tail call void @msix_vector_use(ptr noundef nonnull %0, i32 noundef %15) #15
  br label %21

21:                                               ; preds = %.thread, %19, %14, %virtio_bus_get_device.exit
  %.0 = phi i32 [ %8, %virtio_bus_get_device.exit ], [ -22, %14 ], [ 0, %19 ], [ 0, %.thread ]
  ret i32 %.0
}